target datalayout = "e-m:e-p270:32:32-p271:32:32-p272:64:64-i64:64-i128:128-f80:128-n8:16:32:64-S128"
target triple = "x86_64-pc-linux-gnu"

%class.G1GCPhaseTimes = type { i32, i64, double, [45 x ptr], double, double, double, double, double, double, double, double, double, double, double, double, double, double, double, double, double, double, double, double, double, double, double, double, double, double, %class.ReferenceProcessorPhaseTimes, %class.WeakProcessorTimes }
%class.ReferenceProcessorPhaseTimes = type { [5 x ptr], [3 x double], [3 x double], ptr, double, [4 x i64], [4 x i64], i8, ptr }
%class.WeakProcessorTimes = type { i32, i32, double, [10 x ptr] }
%class.WorkerDataArray = type { ptr, i32, ptr, ptr, i8, [9 x ptr] }

; Function Attrs: mustprogress nounwind uwtable
define linkonce_odr hidden void @_ZN15WorkerDataArrayIdE7set_allEd(ptr noundef nonnull align 8 dereferenceable(112) %0, double noundef %1) #1 comdat align 2 {
  %3 = alloca ptr, align 8
  %4 = alloca double, align 8
  %5 = alloca i32, align 4
  store ptr %0, ptr %3, align 8
  store double %1, ptr %4, align 8
  %6 = load ptr, ptr %3, align 8
  store i32 0, ptr %5, align 4
  br label %7

7:                                                ; preds = %19, %2
  %8 = load i32, ptr %5, align 4
  %9 = getelementptr inbounds %class.WorkerDataArray, ptr %6, i32 0, i32 1
  %10 = load i32, ptr %9, align 8
  %11 = icmp ult i32 %8, %10
  br i1 %11, label %12, label %22

12:                                               ; preds = %7
  %13 = load double, ptr %4, align 8
  %14 = getelementptr inbounds %class.WorkerDataArray, ptr %6, i32 0, i32 0
  %15 = load ptr, ptr %14, align 8
  %16 = load i32, ptr %5, align 4
  %17 = zext i32 %16 to i64
  %18 = getelementptr inbounds double, ptr %15, i64 %17
  store double %13, ptr %18, align 8
  br label %19

19:                                               ; preds = %12
  %20 = load i32, ptr %5, align 4
  %21 = add i32 %20, 1
  store i32 %21, ptr %5, align 4
  br label %7, !llvm.loop !87

22:                                               ; preds = %7
  ret void
}

; Function Attrs: mustprogress nounwind uwtable
define linkonce_odr hidden void @_ZN15WorkerDataArrayIdE5resetEv(ptr noundef nonnull align 8 dereferenceable(112) %0) #1 comdat align 2 {
  %2 = alloca ptr, align 8
  %3 = alloca i32, align 4
  store ptr %0, ptr %2, align 8
  %4 = load ptr, ptr %2, align 8
  %5 = call noundef double @_ZN15WorkerDataArrayIdE13uninitializedEv()
  call void @_ZN15WorkerDataArrayIdE7set_allEd(ptr noundef nonnull align 8 dereferenceable(112) %4, double noundef %5)
  store i32 0, ptr %3, align 4
  br label %6

6:                                                ; preds = %23, %1
  %7 = load i32, ptr %3, align 4
  %8 = icmp ult i32 %7, 9
  br i1 %8, label %9, label %26

9:                                                ; preds = %6
  %10 = getelementptr inbounds %class.WorkerDataArray, ptr %4, i32 0, i32 5
  %11 = load i32, ptr %3, align 4
  %12 = zext i32 %11 to i64
  %13 = getelementptr inbounds [9 x ptr], ptr %10, i64 0, i64 %12
  %14 = load ptr, ptr %13, align 8
  %15 = icmp ne ptr %14, null
  br i1 %15, label %16, label %22

16:                                               ; preds = %9
  %17 = getelementptr inbounds %class.WorkerDataArray, ptr %4, i32 0, i32 5
  %18 = load i32, ptr %3, align 4
  %19 = zext i32 %18 to i64
  %20 = getelementptr inbounds [9 x ptr], ptr %17, i64 0, i64 %19
  %21 = load ptr, ptr %20, align 8
  call void @_ZN15WorkerDataArrayImE5resetEv(ptr noundef nonnull align 8 dereferenceable(112) %21)
  br label %22

22:                                               ; preds = %16, %9
  br label %23

23:                                               ; preds = %22
  %24 = load i32, ptr %3, align 4
  %25 = add i32 %24, 1
  store i32 %25, ptr %3, align 4
  br label %6, !llvm.loop !11

26:                                               ; preds = %6
  ret void
}

; Function Attrs: mustprogress nounwind uwtable
define hidden void @_ZN14G1GCPhaseTimes5resetEv(ptr noundef nonnull align 8 dereferenceable(872) %0) #1 align 2 {
  %2 = alloca ptr, align 8
  %3 = alloca i32, align 4
  store ptr %0, ptr %2, align 8
  %4 = load ptr, ptr %2, align 8
  %5 = getelementptr inbounds %class.G1GCPhaseTimes, ptr %4, i32 0, i32 4
  store double 0.000000e+00, ptr %5, align 8
  %6 = getelementptr inbounds %class.G1GCPhaseTimes, ptr %4, i32 0, i32 5
  store double 0.000000e+00, ptr %6, align 8
  %7 = getelementptr inbounds %class.G1GCPhaseTimes, ptr %4, i32 0, i32 6
  store double 0.000000e+00, ptr %7, align 8
  %8 = getelementptr inbounds %class.G1GCPhaseTimes, ptr %4, i32 0, i32 7
  store double 0.000000e+00, ptr %8, align 8
  %9 = getelementptr inbounds %class.G1GCPhaseTimes, ptr %4, i32 0, i32 8
  store double 0.000000e+00, ptr %9, align 8
  %10 = getelementptr inbounds %class.G1GCPhaseTimes, ptr %4, i32 0, i32 9
  store double 0.000000e+00, ptr %10, align 8
  %11 = getelementptr inbounds %class.G1GCPhaseTimes, ptr %4, i32 0, i32 11
  store double 0.000000e+00, ptr %11, align 8
  %12 = getelementptr inbounds %class.G1GCPhaseTimes, ptr %4, i32 0, i32 10
  store double 0.000000e+00, ptr %12, align 8
  %13 = getelementptr inbounds %class.G1GCPhaseTimes, ptr %4, i32 0, i32 12
  store double 0.000000e+00, ptr %13, align 8
  %14 = getelementptr inbounds %class.G1GCPhaseTimes, ptr %4, i32 0, i32 13
  store double 0.000000e+00, ptr %14, align 8
  %15 = getelementptr inbounds %class.G1GCPhaseTimes, ptr %4, i32 0, i32 14
  store double 0.000000e+00, ptr %15, align 8
  %16 = getelementptr inbounds %class.G1GCPhaseTimes, ptr %4, i32 0, i32 15
  store double 0.000000e+00, ptr %16, align 8
  %17 = getelementptr inbounds %class.G1GCPhaseTimes, ptr %4, i32 0, i32 16
  store double 0.000000e+00, ptr %17, align 8
  %18 = getelementptr inbounds %class.G1GCPhaseTimes, ptr %4, i32 0, i32 17
  store double 0.000000e+00, ptr %18, align 8
  %19 = getelementptr inbounds %class.G1GCPhaseTimes, ptr %4, i32 0, i32 18
  store double 0.000000e+00, ptr %19, align 8
  %20 = getelementptr inbounds %class.G1GCPhaseTimes, ptr %4, i32 0, i32 19
  store double 0.000000e+00, ptr %20, align 8
  %21 = getelementptr inbounds %class.G1GCPhaseTimes, ptr %4, i32 0, i32 20
  store double 0.000000e+00, ptr %21, align 8
  %22 = getelementptr inbounds %class.G1GCPhaseTimes, ptr %4, i32 0, i32 21
  store double 0.000000e+00, ptr %22, align 8
  %23 = getelementptr inbounds %class.G1GCPhaseTimes, ptr %4, i32 0, i32 22
  store double 0.000000e+00, ptr %23, align 8
  %24 = getelementptr inbounds %class.G1GCPhaseTimes, ptr %4, i32 0, i32 23
  store double 0.000000e+00, ptr %24, align 8
  %25 = getelementptr inbounds %class.G1GCPhaseTimes, ptr %4, i32 0, i32 24
  store double 0.000000e+00, ptr %25, align 8
  %26 = getelementptr inbounds %class.G1GCPhaseTimes, ptr %4, i32 0, i32 25
  store double 0.000000e+00, ptr %26, align 8
  %27 = getelementptr inbounds %class.G1GCPhaseTimes, ptr %4, i32 0, i32 26
  store double 0.000000e+00, ptr %27, align 8
  %28 = getelementptr inbounds %class.G1GCPhaseTimes, ptr %4, i32 0, i32 27
  store double 0.000000e+00, ptr %28, align 8
  %29 = getelementptr inbounds %class.G1GCPhaseTimes, ptr %4, i32 0, i32 28
  store double 0.000000e+00, ptr %29, align 8
  %30 = getelementptr inbounds %class.G1GCPhaseTimes, ptr %4, i32 0, i32 29
  store double 0.000000e+00, ptr %30, align 8
  store i32 0, ptr %3, align 4
  br label %31

31:                                               ; preds = %48, %1
  %32 = load i32, ptr %3, align 4
  %33 = icmp slt i32 %32, 45
  br i1 %33, label %34, label %51

34:                                               ; preds = %31
  %35 = getelementptr inbounds %class.G1GCPhaseTimes, ptr %4, i32 0, i32 3
  %36 = load i32, ptr %3, align 4
  %37 = sext i32 %36 to i64
  %38 = getelementptr inbounds [45 x ptr], ptr %35, i64 0, i64 %37
  %39 = load ptr, ptr %38, align 8
  %40 = icmp ne ptr %39, null
  br i1 %40, label %41, label %47

41:                                               ; preds = %34
  %42 = getelementptr inbounds %class.G1GCPhaseTimes, ptr %4, i32 0, i32 3
  %43 = load i32, ptr %3, align 4
  %44 = sext i32 %43 to i64
  %45 = getelementptr inbounds [45 x ptr], ptr %42, i64 0, i64 %44
  %46 = load ptr, ptr %45, align 8
  call void @_ZN15WorkerDataArrayIdE5resetEv(ptr noundef nonnull align 8 dereferenceable(112) %46)
  br label %47

47:                                               ; preds = %41, %34
  br label %48

48:                                               ; preds = %47
  %49 = load i32, ptr %3, align 4
  %50 = add nsw i32 %49, 1
  store i32 %50, ptr %3, align 4
  br label %31, !llvm.loop !10

51:                                               ; preds = %31
  %52 = getelementptr inbounds %class.G1GCPhaseTimes, ptr %4, i32 0, i32 30
  call void @_ZN28ReferenceProcessorPhaseTimes5resetEv(ptr noundef nonnull align 8 dereferenceable(184) %52)
  %53 = getelementptr inbounds %class.G1GCPhaseTimes, ptr %4, i32 0, i32 31
  call void @_ZN18WeakProcessorTimes5resetEv(ptr noundef nonnull align 8 dereferenceable(96) %53)
  ret void
}

; Function Attrs: mustprogress nounwind uwtable
define hidden void @_ZN14G1GCPhaseTimes21record_gc_pause_startEv(ptr noundef nonnull align 8 dereferenceable(872) %0) #1 align 2 {
  %2 = alloca ptr, align 8
  store ptr %0, ptr %2, align 8
  %3 = load ptr, ptr %2, align 8
  %4 = call noundef i64 @_ZN2os15elapsed_counterEv()
  %5 = getelementptr inbounds %class.G1GCPhaseTimes, ptr %3, i32 0, i32 1
  store i64 %4, ptr %5, align 8
  call void @_ZN14G1GCPhaseTimes5resetEv(ptr noundef nonnull align 8 dereferenceable(872) %3)
  ret void
}