; Function Attrs: mustprogress nounwind uwtable
define hidden void @_ZN14G1GCPhaseTimes21record_gc_pause_startEv(ptr noundef nonnull align 8 dereferenceable(872) %0) local_unnamed_addr #0 align 2 {
  %2 = tail call noundef i64 @_ZN2os15elapsed_counterEv() #18
  %3 = getelementptr inbounds i8, ptr %0, i64 8
  store i64 %2, ptr %3, align 8
  %4 = getelementptr inbounds i8, ptr %0, i64 384
  %5 = getelementptr inbounds i8, ptr %0, i64 24
  tail call void @llvm.memset.p0.i64(ptr noundef nonnull align 8 dereferenceable(208) %4, i8 0, i64 208, i1 false)
  br label %6

6:                                                ; preds = %_ZN15WorkerDataArrayIdE5resetEv.exit.i, %1
  %indvars.iv.i = phi i64 [ 0, %1 ], [ %indvars.iv.next.i, %_ZN15WorkerDataArrayIdE5resetEv.exit.i ]
  %7 = getelementptr inbounds [45 x ptr], ptr %5, i64 0, i64 %indvars.iv.i
  %8 = load ptr, ptr %7, align 8
  %.not.i = icmp eq ptr %8, null
  br i1 %.not.i, label %_ZN15WorkerDataArrayIdE5resetEv.exit.i, label %9

9:                                                ; preds = %6
  %10 = tail call noundef double @_ZN15WorkerDataArrayIdE13uninitializedEv() #18
  %11 = getelementptr inbounds i8, ptr %8, i64 8
  %12 = load i32, ptr %11, align 8
  %.not.i.i.i = icmp eq i32 %12, 0
  br i1 %.not.i.i.i, label %_ZN15WorkerDataArrayIdE7set_allEd.exit.i.i, label %.lr.ph.i.i.i

.lr.ph.i.i.i:                                     ; preds = %9, %.lr.ph.i.i.i
  %indvars.iv.i.i.i = phi i64 [ %indvars.iv.next.i.i.i, %.lr.ph.i.i.i ], [ 0, %9 ]
  %13 = load ptr, ptr %8, align 8
  %14 = getelementptr inbounds double, ptr %13, i64 %indvars.iv.i.i.i
  store double %10, ptr %14, align 8
  %indvars.iv.next.i.i.i = add nuw nsw i64 %indvars.iv.i.i.i, 1
  %15 = load i32, ptr %11, align 8
  %16 = zext i32 %15 to i64
  %17 = icmp ult i64 %indvars.iv.next.i.i.i, %16
  br i1 %17, label %.lr.ph.i.i.i, label %_ZN15WorkerDataArrayIdE7set_allEd.exit.i.i, !llvm.loop !6

_ZN15WorkerDataArrayIdE7set_allEd.exit.i.i:       ; preds = %.lr.ph.i.i.i, %9
  %18 = getelementptr inbounds i8, ptr %8, i64 40
  br label %19

19:                                               ; preds = %23, %_ZN15WorkerDataArrayIdE7set_allEd.exit.i.i
  %indvars.iv.i.i = phi i64 [ 0, %_ZN15WorkerDataArrayIdE7set_allEd.exit.i.i ], [ %indvars.iv.next.i.i, %23 ]
  %20 = getelementptr inbounds [9 x ptr], ptr %18, i64 0, i64 %indvars.iv.i.i
  %21 = load ptr, ptr %20, align 8
  %.not.i.i = icmp eq ptr %21, null
  br i1 %.not.i.i, label %23, label %22

22:                                               ; preds = %19
  tail call void @_ZN15WorkerDataArrayImE5resetEv(ptr noundef nonnull align 8 dereferenceable(112) %21)
  br label %23

23:                                               ; preds = %22, %19
  %indvars.iv.next.i.i = add nuw nsw i64 %indvars.iv.i.i, 1
  %exitcond.not.i.i = icmp eq i64 %indvars.iv.next.i.i, 9
  br i1 %exitcond.not.i.i, label %_ZN15WorkerDataArrayIdE5resetEv.exit.i, label %19, !llvm.loop !8

_ZN15WorkerDataArrayIdE5resetEv.exit.i:           ; preds = %23, %6
  %indvars.iv.next.i = add nuw nsw i64 %indvars.iv.i, 1
  %exitcond.not.i = icmp eq i64 %indvars.iv.next.i, 45
  br i1 %exitcond.not.i, label %_ZN14G1GCPhaseTimes5resetEv.exit, label %6, !llvm.loop !11

_ZN14G1GCPhaseTimes5resetEv.exit:                 ; preds = %_ZN15WorkerDataArrayIdE5resetEv.exit.i
  %24 = getelementptr inbounds i8, ptr %0, i64 592
  tail call void @_ZN28ReferenceProcessorPhaseTimes5resetEv(ptr noundef nonnull align 8 dereferenceable(184) %24) #18
  %25 = getelementptr inbounds i8, ptr %0, i64 776
  tail call void @_ZN18WeakProcessorTimes5resetEv(ptr noundef nonnull align 8 dereferenceable(96) %25) #18
  ret void
}